; Function Attrs: nounwind uwtable
define hidden ptr @lj_lib_checkstr(ptr noundef %0, i32 noundef %1) local_unnamed_addr #0 {
  %3 = getelementptr inbounds nuw i8, ptr %0, i64 32
  %4 = load ptr, ptr %3, align 8, !tbaa !17
  %5 = sext i32 %1 to i64
  %6 = getelementptr inbounds %union.TValue, ptr %4, i64 %5
  %7 = getelementptr inbounds i8, ptr %6, i64 -8
  %8 = getelementptr inbounds nuw i8, ptr %0, i64 40
  %9 = load ptr, ptr %8, align 8, !tbaa !16
  %10 = icmp ult ptr %7, %9
  br i1 %10, label %11, label %24

11:                                               ; preds = %2
  %12 = load i64, ptr %7, align 8, !tbaa !14
  %13 = ashr i64 %12, 47
  %14 = icmp eq i64 %13, -5
  br i1 %14, label %15, label %18, !prof !18

15:                                               ; preds = %11
  %16 = and i64 %12, 140737488355327
  %17 = inttoptr i64 %16 to ptr
  br label %25

18:                                               ; preds = %11
  %19 = icmp ult i64 %13, -13
  br i1 %19, label %20, label %24

20:                                               ; preds = %18
  %21 = tail call ptr @lj_strfmt_number(ptr noundef nonnull %0, ptr noundef nonnull %7) #8
  %22 = ptrtoint ptr %21 to i64
  %23 = or i64 %22, -703687441776640
  store i64 %23, ptr %7, align 8, !tbaa !14
  br label %25

24:                                               ; preds = %18, %2
  tail call void @lj_err_argt(ptr noundef nonnull %0, i32 noundef %1, i32 noundef 4) #9
  unreachable

25:                                               ; preds = %20, %15
  %.0 = phi ptr [ %17, %15 ], [ %21, %20 ]
  ret ptr %.0
}